(dp0
S'State_opp'
p1
ccopy_reg
_reconstructor
p2
(csklearn.preprocessing.label
LabelEncoder
p3
c__builtin__
object
p4
Ntp5
Rp6
(dp7
S'classes_'
p8
cnumpy.core.multiarray
_reconstruct
p9
(cnumpy
ndarray
p10
(I0
tp11
S'b'
p12
tp13
Rp14
(I1
(I4
tp15
cnumpy
dtype
p16
(S'O8'
p17
I0
I1
tp18
Rp19
(I3
S'|'
p20
NNNI-1
I-1
I63
tp21
bI00
(lp22
S'CO'
p23
aS'GA'
p24
aS'OR'
p25
aS'TX'
p26
atp27
bsS'_sklearn_version'
p28
S'0.18'
p29
sbsS'City'
p30
g2
(g3
g4
Ntp31
Rp32
(dp33
g8
g9
(g10
(I0
tp34
g12
tp35
Rp36
(I1
(I126
tp37
g19
I00
(lp38
S'Addison'
p39
aS'Aledo'
p40
aS'Allen'
p41
aS'Alpharetta'
p42
aS'Anna'
p43
aS'Argyle'
p44
aS'Arlington'
p45
aS'Arvada'
p46
aS'Atlanta'
p47
aS'Aurora'
p48
aS'Austell'
p49
aS'Azle'
p50
aS'Bedford'
p51
aS'Bennett'
p52
aS'Boulder'
p53
aS'Broomfield'
p54
aS'Buford'
p55
aS'Byers'
p56
aS'Carrollton'
p57
aS'Castle Rock'
p58
aS'Cedar Hill'
p59
aS'Centennial'
p60
aS'Chamblee'
p61
aS'Cleburne'
p62
aS'Colleyville'
p63
aS'Colorado Springs'
p64
aS'Commerce City'
p65
aS'Conyers'
p66
aS'Coppell'
p67
aS'Crandall'
p68
aS'Cumming'
p69
aS'Dallas'
p70
aS'DeSoto'
p71
aS'Decatur'
p72
aS'Deer Trail'
p73
aS'Denton'
p74
aS'Denver'
p75
aS'Desoto'
p76
aS'Douglasville'
p77
aS'Ducanville'
p78
aS'Duluth'
p79
aS'Duncanville'
p80
aS'Dunwoody'
p81
aS'Elbert'
p82
aS'Ellenwood'
p83
aS'Englewood'
p84
aS'Euless'
p85
aS'Evans'
p86
aS'Fairburn'
p87
aS"Farmer's Branch"
p88
aS'Farmers Branch'
p89
aS'Fayetteville'
p90
aS'Ferris'
p91
aS'Forest Park'
p92
aS'Forney'
p93
aS'Fort Worth'
p94
aS'Frisco'
p95
aS'Gainesville'
p96
aS'Garland'
p97
aS'Golden'
p98
aS'Grand Prairie'
p99
aS'Grapevine'
p100
aS'Greenwood Village'
p101
aS'Hampton'
p102
aS'Haslet'
p103
aS'Heath'
p104
aS'Henderson'
p105
aS'Hurst'
p106
aS'Irving'
p107
aS'Johns Creek'
p108
aS'Keene'
p109
aS'Kennesaw'
p110
aS'Kiowa'
p111
aS'Krum'
p112
aS'Lakewood'
p113
aS'Lawrenceville'
p114
aS'Lewisville'
p115
aS'Lilburn'
p116
aS'Lithia Springs'
p117
aS'Littleton'
p118
aS'Locust Grove'
p119
aS'Lone Tree'
p120
aS'Marietta'
p121
aS'McDonough'
p122
aS'McKinney'
p123
aS'Melissa'
p124
aS'Mesquite'
p125
aS'Midlothian'
p126
aS'Newnan'
p127
aS'Norcross'
p128
aS'North Richland Hills'
p129
aS'Palmetto'
p130
aS'Peachtree City'
p131
aS'Peachtree Corners'
p132
aS'Plano'
p133
aS'Portland'
p134
aS'Princeton'
p135
aS'Prosper'
p136
aS'Red Oak'
p137
aS'Richardson'
p138
aS'River Oaks'
p139
aS'Roanoke'
p140
aS'Rockwall'
p141
aS'Roswell'
p142
aS'Sanger'
p143
aS'Sedalia'
p144
aS'Smyrna'
p145
aS'Southlake'
p146
aS'Stockbridge'
p147
aS'Strasburg'
p148
aS'Sunnyvale'
p149
aS'Suwanee'
p150
aS'Texarkana'
p151
aS'The Colony'
p152
aS'Thornton'
p153
aS'Tucker'
p154
aS'Tyrone'
p155
aS'Union City'
p156
aS'Villa Rica'
p157
aS'Waxahachie'
p158
aS'Weatherford'
p159
aS'Westlake'
p160
aS'Westminster'
p161
aS'Wheat Ridge'
p162
aS'Willow Park'
p163
aS'Winston'
p164
atp165
bsg28
g29
sbsS'State_cpqs'
p166
g2
(g3
g4
Ntp167
Rp168
(dp169
g8
g9
(g10
(I0
tp170
g12
tp171
Rp172
(I1
(I4
tp173
g19
I00
(lp174
S'CO'
p175
aS'GA'
p176
aVNaN
p177
aS'TX'
p178
atp179
bsg28
g29
sbsS'Service'
p180
g2
(g3
g4
Ntp181
Rp182
(dp183
g8
g9
(g10
(I0
tp184
g12
tp185
Rp186
(I1
(I88
tp187
g19
I00
(lp188
g177
aS'a0M60000008uDrOEAU'
p189
aS'a0M60000009l9UcEAI'
p190
aS'a0M60000009u5FCEAY'
p191
aS'a0M6000000A3VAyEAN'
p192
aS'a0M6000000BwGakEAF'
p193
aS'a0M6000000CBUdOEAX'
p194
aS'a0M6000000CBVhMEAX'
p195
aS'a0M6000000CBhBVEA1'
p196
aS'a0M6000000CC6gsEAD'
p197
aS'a0M6000000CRKioEAH'
p198
aS'a0M6000000CRLVVEA5'
p199
aS'a0M6000000CRLWxEAP'
p200
aS'a0M6000000CThaxEAD'
p201
aS'a0M6000000CcZgaEAF'
p202
aS'a0M6000000CvElfEAF'
p203
aS'a0M6000000CweFZEAZ'
p204
aS'a0M6000000F4KSbEAN'
p205
aS'a0M6000000F56CBEAZ'
p206
aS'a0M6000000FPVyIEAX'
p207
aS'a0M6000000FVtq6EAD'
p208
aS'a0M6000000FfvtAEAR'
p209
aS'a0M6000000FjRvgEAF'
p210
aS'a0M6000000Gl0JOEAZ'
p211
aS'a0M6000000GpmrKEAR'
p212
aS'a0M6000000Gw3nWEAR'
p213
aS'a0M6000000HG90vEAD'
p214
aS'a0M6000000HpprvEAB'
p215
aS'a0M6000000HuTkUEAV'
p216
aS'a0M6000000I90JHEAZ'
p217
aS'a0M6000000I9wjOEAR'
p218
aS'a0M6000000IA3bfEAD'
p219
aS'a0M6000000IJu71EAD'
p220
aS'a0M6000000IKvXpEAL'
p221
aS'a0M6000000IMslBEAT'
p222
aS'a0M6000000IeUalEAF'
p223
aS'a0M6000000Igb6zEAB'
p224
aS'a0M6000000Ih6ZTEAZ'
p225
aS'a0M6000000IzjMMEAZ'
p226
aS'a0M6000000J3c3PEAR'
p227
aS'a0M6000000J8jogEAB'
p228
aS'a0M6000000JBTQbEAP'
p229
aS'a0M6000000K69rzEAB'
p230
aS'a0M6000000K6GTwEAN'
p231
aS'a0M6000000K8CizEAF'
p232
aS'a0M6000000KAVmxEAH'
p233
aS'a0M6000000KI5peEAD'
p234
aS'a0M6000000KI5qKEAT'
p235
aS'a0M6000000KbdGDEAZ'
p236
aS'a0M6000000L0SoHEAV'
p237
aS'a0M6000000L0YMlEAN'
p238
aS'a0M6000000L1FJkEAN'
p239
aS'a0M6000000L8VRcEAN'
p240
aS'a0M6000000LKIfSEAX'
p241
aS'a0M6000000LS6x1EAD'
p242
aS'a0M6000000LUQosEAH'
p243
aS'a0M6000000LaZNVEA3'
p244
aS'a0M6000000Lk001EAB'
p245
aS'a0M6000000LkKjNEAV'
p246
aS'a0M6000000LkuoXEAR'
p247
aS'a0M6000000M5UhFEAV'
p248
aS'a0M6000000MBwo4EAD'
p249
aS'a0M6000000MCewWEAT'
p250
aS'a0M6000000MCexUEAT'
p251
aS'a0M6000000MPkJWEA1'
p252
aS'a0M6000000MQCS6EAP'
p253
aS'a0M6000000MQCSBEA5'
p254
aS'a0M6000000MXszaEAD'
p255
aS'a0M6000000Md8CvEAJ'
p256
aS'a0M6000000Mp4c1EAB'
p257
aS'a0M6000000Mp4eWEAR'
p258
aS'a0M6000000Mp4h6EAB'
p259
aS'a0M6000000Mp4haEAB'
p260
aS'a0M6000000Mp4i9EAB'
p261
aS'a0M6000000Mp4jWEAR'
p262
aS'a0M6000000MpCkJEAV'
p263
aS'a0M6000000MpCt6EAF'
p264
aS'a0M6000000MpgU3EAJ'
p265
aS'a0M6000000NCBjNEAX'
p266
aS'a0M6000000NCu6xEAD'
p267
aS'a0M6000000ND1raEAD'
p268
aS'a0M6000000ND3NYEA1'
p269
aS'a0M6000000NEvtFEAT'
p270
aS'a0M6000000NPpbDEAT'
p271
aS'a0M6000000NRSX2EAP'
p272
aS'a0M6000000NbE06EAF'
p273
aS'a0M6000000NbVNAEA3'
p274
aS'a0M6000000NhXkbEAF'
p275
atp276
bsg28
g29
sbsS'Product Group_cpqs'
p277
g2
(g3
g4
Ntp278
Rp279
(dp280
g8
g9
(g10
(I0
tp281
g12
tp282
Rp283
(I1
(I10
tp284
g19
I00
(lp285
S'Cloud'
p286
aS'Dark Fiber - Metro'
p287
aS'Ethernet'
p288
aS'IP Services'
p289
aS'Live Video'
p290
ag177
aS'SONET'
p291
aS'Wavelengths - Long Haul'
p292
aS'Wavelengths - Metro'
p293
aS'zColo'
p294
atp295
bsg28
g29
sbsS'On Zayo Network Status'
p296
g2
(g3
g4
Ntp297
Rp298
(dp299
g8
g9
(g10
(I0
tp300
g12
tp301
Rp302
(I1
(I3
tp303
g19
I00
(lp304
S'Build in Progress'
p305
aS'Not on Zayo Network'
p306
aS'On Zayo Network'
p307
atp308
bsg28
g29
sbsS'On Zayo Network Status_opp'
p309
g2
(g3
g4
Ntp310
Rp311
(dp312
g8
g9
(g10
(I0
tp313
g12
tp314
Rp315
(I1
(I3
tp316
g19
I00
(lp317
S'Build in Progress'
p318
aS'Not on Zayo Network'
p319
aS'On Zayo Network'
p320
atp321
bsg28
g29
sbsS'Type'
p322
g2
(g3
g4
Ntp323
Rp324
(dp325
g8
g9
(g10
(I0
tp326
g12
tp327
Rp328
(I1
(I33
tp329
g19
I00
(lp330
S'Airport'
p331
aS'Carrier Hotel'
p332
aS'Carrier POP'
p333
aS'Cell Site'
p334
aS'Clinic'
p335
aS'College/University'
p336
aS'Conference/Convention Center'
p337
aS'Earth Station/Satellite Farm/Uplink Facility'
p338
aS'Elementary School'
p339
aS'Enterprise'
p340
aS'Federal Government'
p341
aS'High School'
p342
aS'Hospital'
p343
aS'Hotel & Inn'
p344
aS'ILA'
p345
aS'ILEC Central Office'
p346
aS'Local/State Government'
p347
aS'Middle School'
p348
aS'Mobile Service Center'
p349
aS'Neutral Data Center'
p350
aS'Office - Multi Tenant'
p351
aS'Office - Single Tenant'
p352
aS'Pole'
p353
aS'Private Data Center'
p354
aS'Residential - Multi Tenant'
p355
aS'Retail - Multi Tenant'
p356
aS'Retail - Single Tenant'
p357
aS'Retail: Lrg Shopping Mall'
p358
aS'Small Cell'
p359
aS'Splice Point'
p360
aS'Stadium/Arena'
p361
aS'Studio/Broadcast Center'
p362
aS'Zayo POP'
p363
atp364
bsg28
g29
sbsS'Vertical'
p365
g2
(g3
g4
Ntp366
Rp367
(dp368
g8
g9
(g10
(I0
tp369
g12
tp370
Rp371
(I1
(I2
tp372
g19
I00
(lp373
g177
aS'National Carrier/ISP'
p374
atp375
bsg28
g29
sbsS'Market_opp'
p376
g2
(g3
g4
Ntp377
Rp378
(dp379
g8
g9
(g10
(I0
tp380
g12
tp381
Rp382
(I1
(I3
tp383
g19
I00
(lp384
S'Atlanta'
p385
aS'Dallas'
p386
aS'Denver'
p387
atp388
bsg28
g29
sbsS'Market_cpqs'
p389
g2
(g3
g4
Ntp390
Rp391
(dp392
g8
g9
(g10
(I0
tp393
g12
tp394
Rp395
(I1
(I4
tp396
g19
I00
(lp397
S'Atlanta'
p398
aS'Dallas'
p399
aS'Denver'
p400
ag177
atp401
bsg28
g29
sbsS'City_opp'
p402
g2
(g3
g4
Ntp403
Rp404
(dp405
g8
g9
(g10
(I0
tp406
g12
tp407
Rp408
(I1
(I126
tp409
g19
I00
(lp410
S'Addison'
p411
aS'Aledo'
p412
aS'Allen'
p413
aS'Alpharetta'
p414
aS'Anna'
p415
aS'Argyle'
p416
aS'Arlington'
p417
aS'Arvada'
p418
aS'Atlanta'
p419
aS'Aurora'
p420
aS'Austell'
p421
aS'Azle'
p422
aS'Bedford'
p423
aS'Bennett'
p424
aS'Boulder'
p425
aS'Broomfield'
p426
aS'Buford'
p427
aS'Byers'
p428
aS'Carrollton'
p429
aS'Castle Rock'
p430
aS'Cedar Hill'
p431
aS'Centennial'
p432
aS'Chamblee'
p433
aS'Cleburne'
p434
aS'Colleyville'
p435
aS'Colorado Springs'
p436
aS'Commerce City'
p437
aS'Conyers'
p438
aS'Coppell'
p439
aS'Crandall'
p440
aS'Cumming'
p441
aS'Dallas'
p442
aS'DeSoto'
p443
aS'Decatur'
p444
aS'Deer Trail'
p445
aS'Denton'
p446
aS'Denver'
p447
aS'Desoto'
p448
aS'Douglasville'
p449
aS'Ducanville'
p450
aS'Duluth'
p451
aS'Duncanville'
p452
aS'Dunwoody'
p453
aS'Elbert'
p454
aS'Ellenwood'
p455
aS'Englewood'
p456
aS'Euless'
p457
aS'Evans'
p458
aS'Fairburn'
p459
aS"Farmer's Branch"
p460
aS'Farmers Branch'
p461
aS'Fayetteville'
p462
aS'Ferris'
p463
aS'Forest Park'
p464
aS'Forney'
p465
aS'Fort Worth'
p466
aS'Frisco'
p467
aS'Gainesville'
p468
aS'Garland'
p469
aS'Golden'
p470
aS'Grand Prairie'
p471
aS'Grapevine'
p472
aS'Greenwood Village'
p473
aS'Hampton'
p474
aS'Haslet'
p475
aS'Heath'
p476
aS'Henderson'
p477
aS'Hurst'
p478
aS'Irving'
p479
aS'Johns Creek'
p480
aS'Keene'
p481
aS'Kennesaw'
p482
aS'Kiowa'
p483
aS'Krum'
p484
aS'Lakewood'
p485
aS'Lawrenceville'
p486
aS'Lewisville'
p487
aS'Lilburn'
p488
aS'Lithia Springs'
p489
aS'Littleton'
p490
aS'Locust Grove'
p491
aS'Lone Tree'
p492
aS'Marietta'
p493
aS'McDonough'
p494
aS'McKinney'
p495
aS'Melissa'
p496
aS'Mesquite'
p497
aS'Midlothian'
p498
aS'Newnan'
p499
aS'Norcross'
p500
aS'North Richland Hills'
p501
aS'Palmetto'
p502
aS'Peachtree City'
p503
aS'Peachtree Corners'
p504
aS'Plano'
p505
aS'Portland'
p506
aS'Princeton'
p507
aS'Prosper'
p508
aS'Red Oak'
p509
aS'Richardson'
p510
aS'River Oaks'
p511
aS'Roanoke'
p512
aS'Rockwall'
p513
aS'Roswell'
p514
aS'Sanger'
p515
aS'Sedalia'
p516
aS'Smyrna'
p517
aS'Southlake'
p518
aS'Stockbridge'
p519
aS'Strasburg'
p520
aS'Sunnyvale'
p521
aS'Suwanee'
p522
aS'Texarkana'
p523
aS'The Colony'
p524
aS'Thornton'
p525
aS'Tucker'
p526
aS'Tyrone'
p527
aS'Union City'
p528
aS'Villa Rica'
p529
aS'Waxahachie'
p530
aS'Weatherford'
p531
aS'Westlake'
p532
aS'Westminster'
p533
aS'Wheat Ridge'
p534
aS'Willow Park'
p535
aS'Winston'
p536
atp537
bsg28
g29
sbsS'City_cpqs'
p538
g2
(g3
g4
Ntp539
Rp540
(dp541
g8
g9
(g10
(I0
tp542
g12
tp543
Rp544
(I1
(I73
tp545
g19
I00
(lp546
S'Addison'
p547
aS'Allen'
p548
aS'Alpharetta'
p549
aS'Arlington'
p550
aS'Arvada'
p551
aS'Atlanta'
p552
aS'Aurora'
p553
aS'Austell'
p554
aS'Bedford'
p555
aS'Boulder'
p556
aS'Brighton'
p557
aS'Broomfield'
p558
aS'Burleson'
p559
aS'Byers'
p560
aS'Carrollton'
p561
aS'Centennial'
p562
aS'Coppell'
p563
aS'Dallas'
p564
aS'DeSoto'
p565
aS'Decatur'
p566
aS'Denver'
p567
aS'Duluth'
p568
aS'Duncanville'
p569
aS'Dunwoody'
p570
aS'Englewood'
p571
aS'Euless'
p572
aS'Evergreen'
p573
aS'Farmers Branch'
p574
aS'Fayetteville'
p575
aS'Forest Park'
p576
aS'Fort Collins'
p577
aS'Fort Worth'
p578
aS'Garland'
p579
aS'Golden'
p580
aS'Grand Prairie'
p581
aS'Grapevine'
p582
aS'Greenwood Village'
p583
aS'Henderson'
p584
aS'Highlands Ranch'
p585
aS'Irving'
p586
aS'Keller'
p587
aS'Kennesaw'
p588
aS'Lakewood'
p589
aS'Lawrenceville'
p590
aS'Lewisville'
p591
aS'Lithia Springs'
p592
aS'Littleton'
p593
aS'Lone Tree'
p594
aS'Mableton'
p595
aS'Marietta'
p596
aS'Mesquite'
p597
aS'Morrison'
p598
ag177
aS'Norcross'
p599
aS'North Glenn'
p600
aS'North Richland Hills'
p601
aS'Parker'
p602
aS'Peachtree Corners'
p603
aS'Plano'
p604
aS'Richardson'
p605
aS'Roanoke'
p606
aS'Rockwall'
p607
aS'Roswell'
p608
aS'Smyrna'
p609
aS'Southlake'
p610
aS'Strasburg'
p611
aS'Suwanee'
p612
aS'Thornton'
p613
aS'Trophy Club'
p614
aS'Tucker'
p615
aS'Westlake'
p616
aS'Westminster'
p617
aS'Wheat Ridge'
p618
atp619
bsg28
g29
sbsS'Industry'
p620
g2
(g3
g4
Ntp621
Rp622
(dp623
g8
g9
(g10
(I0
tp624
g12
tp625
Rp626
(I1
(I1
tp627
g19
I00
(lp628
g177
atp629
bsg28
g29
sbsS'Postal Code'
p630
g2
(g3
g4
Ntp631
Rp632
(dp633
g8
g9
(g10
(I0
tp634
g12
tp635
Rp636
(I1
(I303
tp637
g19
I00
(lp638
S'30004'
p639
aS'30005'
p640
aS'30008'
p641
aS'30009'
p642
aS'30012'
p643
aS'30013'
p644
aS'30022'
p645
aS'30024'
p646
aS'30028'
p647
aS'30030'
p648
aS'30032'
p649
aS'30040'
p650
aS'30041'
p651
aS'30043'
p652
aS'30046'
p653
aS'30047'
p654
aS'30060'
p655
aS'30062'
p656
aS'30066'
p657
aS'30067'
p658
aS'30068'
p659
aS'30071'
p660
aS'30075'
p661
aS'30076'
p662
aS'30080'
p663
aS'30082'
p664
aS'30084'
p665
aS'30092'
p666
aS'30093'
p667
aS'30094'
p668
aS'30096'
p669
aS'30097'
p670
aS'30106'
p671
aS'30117'
p672
aS'30122'
p673
aS'30134'
p674
aS'30135'
p675
aS'30144'
p676
aS'30168'
p677
aS'30180'
p678
aS'30187'
p679
aS'30213'
p680
aS'30214'
p681
aS'30215'
p682
aS'30228'
p683
aS'30248'
p684
aS'30252'
p685
aS'30253'
p686
aS'30263'
p687
aS'30268'
p688
aS'30269'
p689
aS'30281'
p690
aS'30290'
p691
aS'30291'
p692
aS'30294'
p693
aS'30297'
p694
aS'30303'
p695
aS'30305'
p696
aS'30306'
p697
aS'30307'
p698
aS'30308'
p699
aS'30309'
p700
aS'30310'
p701
aS'30311'
p702
aS'30312'
p703
aS'30313'
p704
aS'30314'
p705
aS'30315'
p706
aS'30316'
p707
aS'30317'
p708
aS'30318'
p709
aS'30319'
p710
aS'30322'
p711
aS'30324'
p712
aS'30326'
p713
aS'30327'
p714
aS'30328'
p715
aS'30329'
p716
aS'30331'
p717
aS'30334'
p718
aS'30336'
p719
aS'30337'
p720
aS'30338'
p721
aS'30339'
p722
aS'30340'
p723
aS'30341'
p724
aS'30342'
p725
aS'30344'
p726
aS'30345'
p727
aS'30346'
p728
aS'30349'
p729
aS'30350'
p730
aS'30354'
p731
aS'30363'
p732
aS'30506'
p733
aS'30518'
p734
aS'30809'
p735
aS'75001'
p736
aS'75006'
p737
aS'75007'
p738
aS'75013'
p739
aS'75019'
p740
aS'75024'
p741
aS'75032'
p742
aS'75034'
p743
aS'75035'
p744
aS'75038'
p745
aS'75039'
p746
aS'75040'
p747
aS'75042'
p748
aS'75044'
p749
aS'75050'
p750
aS'75052'
p751
aS'75056'
p752
aS'75061'
p753
aS'75062'
p754
aS'75063'
p755
aS'75067'
p756
aS'75071'
p757
aS'75074'
p758
aS'75075'
p759
aS'75078'
p760
aS'75080'
p761
aS'75081'
p762
aS'75082'
p763
aS'75087'
p764
aS'75093'
p765
aS'75104'
p766
aS'75114'
p767
aS'75115'
p768
aS'75116'
p769
aS'75125'
p770
aS'75126'
p771
aS'75137'
p772
aS'75149'
p773
aS'75154'
p774
aS'75165'
p775
aS'75182'
p776
aS'75201'
p777
aS'75202'
p778
aS'75204'
p779
aS'75205'
p780
aS'75207'
p781
aS'75215'
p782
aS'75216'
p783
aS'75217'
p784
aS'75219'
p785
aS'75220'
p786
aS'75223'
p787
aS'75225'
p788
aS'75226'
p789
aS'75227'
p790
aS'75230'
p791
aS'75231'
p792
aS'75234'
p793
aS'75235'
p794
aS'75236'
p795
aS'75237'
p796
aS'75238'
p797
aS'75240'
p798
aS'75243'
p799
aS'75244'
p800
aS'75247'
p801
aS'75248'
p802
aS'75249'
p803
aS'75251'
p804
aS'75252'
p805
aS'75254'
p806
aS'75407'
p807
aS'75409'
p808
aS'75454'
p809
aS'75501'
p810
aS'76006'
p811
aS'76008'
p812
aS'76010'
p813
aS'76011'
p814
aS'76012'
p815
aS'76013'
p816
aS'76018'
p817
aS'76020'
p818
aS'76021'
p819
aS'76033'
p820
aS'76034'
p821
aS'76039'
p822
aS'76040'
p823
aS'76051'
p824
aS'76052'
p825
aS'76054'
p826
aS'76059'
p827
aS'76065'
p828
aS'76086'
p829
aS'76087'
p830
aS'76092'
p831
aS'76102'
p832
aS'76103'
p833
aS'76104'
p834
aS'76105'
p835
aS'76106'
p836
aS'76107'
p837
aS'76108'
p838
aS'76109'
p839
aS'76110'
p840
aS'76111'
p841
aS'76112'
p842
aS'76114'
p843
aS'76115'
p844
aS'76116'
p845
aS'76119'
p846
aS'76120'
p847
aS'76132'
p848
aS'76133'
p849
aS'76134'
p850
aS'76137'
p851
aS'76155'
p852
aS'76164'
p853
aS'76177'
p854
aS'76179'
p855
aS'76182'
p856
aS'76207'
p857
aS'76226'
p858
aS'76234'
p859
aS'76249'
p860
aS'76262'
p861
aS'76266'
p862
aS'80004'
p863
aS'80007'
p864
aS'80011'
p865
aS'80014'
p866
aS'80015'
p867
aS'80016'
p868
aS'80018'
p869
aS'80020'
p870
aS'80021'
p871
aS'80022'
p872
aS'80023'
p873
aS'80030'
p874
aS'80031'
p875
aS'80033'
p876
aS'80045'
p877
aS'80102'
p878
aS'80103'
p879
aS'80104'
p880
aS'80105'
p881
aS'80106'
p882
aS'80110'
p883
aS'80111'
p884
aS'80112'
p885
aS'80113'
p886
aS'80117'
p887
aS'80120'
p888
aS'80121'
p889
aS'80122'
p890
aS'80123'
p891
aS'80124'
p892
aS'80125'
p893
aS'80126'
p894
aS'80129'
p895
aS'80135'
p896
aS'80136'
p897
aS'80202'
p898
aS'80203'
p899
aS'80204'
p900
aS'80205'
p901
aS'80206'
p902
aS'80207'
p903
aS'80209'
p904
aS'80210'
p905
aS'80211'
p906
aS'80212'
p907
aS'80214'
p908
aS'80215'
p909
aS'80216'
p910
aS'80218'
p911
aS'80219'
p912
aS'80220'
p913
aS'80221'
p914
aS'80222'
p915
aS'80223'
p916
aS'80224'
p917
aS'80225'
p918
aS'80226'
p919
aS'80227'
p920
aS'80228'
p921
aS'80229'
p922
aS'80230'
p923
aS'80231'
p924
aS'80234'
p925
aS'80235'
p926
aS'80236'
p927
aS'80237'
p928
aS'80239'
p929
aS'80241'
p930
aS'80246'
p931
aS'80247'
p932
aS'80249'
p933
aS'80260'
p934
aS'80265'
p935
aS'80302'
p936
aS'80401'
p937
aS'80403'
p938
aS'80640'
p939
aS'80917'
p940
aS'97209'
p941
atp942
bsg28
g29
sbsS'Postal Code_cpqs'
p943
g2
(g3
g4
Ntp944
Rp945
(dp946
g8
g9
(g10
(I0
tp947
g12
tp948
Rp949
(I1
(I224
tp950
g19
I00
(lp951
S'30004'
p952
aS'30005'
p953
aS'30009'
p954
aS'30022'
p955
aS'30024'
p956
aS'30032'
p957
aS'30033'
p958
aS'30043'
p959
aS'30060'
p960
aS'30062'
p961
aS'30066'
p962
aS'30067'
p963
aS'30069'
p964
aS'30071'
p965
aS'30076'
p966
aS'30080'
p967
aS'30082'
p968
aS'30084'
p969
aS'30090'
p970
aS'30092'
p971
aS'30093'
p972
aS'30096'
p973
aS'30097'
p974
aS'30122'
p975
aS'30126'
p976
aS'30144'
p977
aS'30152'
p978
aS'30168'
p979
aS'30214'
p980
aS'30297'
p981
aS'30303'
p982
aS'30305'
p983
aS'30306'
p984
aS'30307'
p985
aS'30308'
p986
aS'30309'
p987
aS'30310'
p988
aS'30311'
p989
aS'30312'
p990
aS'30313'
p991
aS'30314'
p992
aS'30315'
p993
aS'30318'
p994
aS'30319'
p995
aS'30322'
p996
aS'30326'
p997
aS'30327'
p998
aS'30328'
p999
aS'30328-3447'
p1000
aS'30329'
p1001
aS'30331'
p1002
aS'30334'
p1003
aS'30336'
p1004
aS'30337'
p1005
aS'30338'
p1006
aS'30339'
p1007
aS'30340'
p1008
aS'30342'
p1009
aS'30344'
p1010
aS'30345'
p1011
aS'30346'
p1012
aS'30349'
p1013
aS'30350'
p1014
aS'30354'
p1015
aS'30360'
p1016
aS'30363'
p1017
aS'75001'
p1018
aS'75006'
p1019
aS'75007'
p1020
aS'75013'
p1021
aS'75019'
p1022
aS'75024'
p1023
aS'75038'
p1024
aS'75039'
p1025
aS'75044'
p1026
aS'75050'
p1027
aS'75061'
p1028
aS'75062'
p1029
aS'75063'
p1030
aS'75067'
p1031
aS'75074'
p1032
aS'75075'
p1033
aS'75080'
p1034
aS'75081'
p1035
aS'75082'
p1036
aS'75087'
p1037
aS'75093'
p1038
aS'75115'
p1039
aS'75116'
p1040
aS'75137'
p1041
aS'75149'
p1042
aS'75150'
p1043
aS'75182'
p1044
aS'75201'
p1045
aS'75202'
p1046
aS'75204'
p1047
aS'75205'
p1048
aS'75206'
p1049
aS'75207'
p1050
aS'75215'
p1051
aS'75219'
p1052
aS'75225'
p1053
aS'75226'
p1054
aS'75230'
p1055
aS'75231'
p1056
aS'75234'
p1057
aS'75235'
p1058
aS'75236'
p1059
aS'75238'
p1060
aS'75240'
p1061
aS'75243'
p1062
aS'75244'
p1063
aS'75247'
p1064
aS'75248'
p1065
aS'75251'
p1066
aS'75252'
p1067
aS'75254'
p1068
aS'75270'
p1069
aS'75287'
p1070
aS'76010'
p1071
aS'76011'
p1072
aS'76013'
p1073
aS'76021'
p1074
aS'76028'
p1075
aS'76040'
p1076
aS'76051'
p1077
aS'76092'
p1078
aS'76102'
p1079
aS'76103'
p1080
aS'76104'
p1081
aS'76106'
p1082
aS'76108'
p1083
aS'76109'
p1084
aS'76110'
p1085
aS'76112'
p1086
aS'76114'
p1087
aS'76115'
p1088
aS'76118'
p1089
aS'76126'
p1090
aS'76131'
p1091
aS'76132'
p1092
aS'76137'
p1093
aS'76140'
p1094
aS'76155'
p1095
aS'76177'
p1096
aS'76179'
p1097
aS'76180'
p1098
aS'76182'
p1099
aS'76244'
p1100
aS'76262'
p1101
aS'80004'
p1102
aS'80011'
p1103
aS'80012'
p1104
aS'80014'
p1105
aS'80018'
p1106
aS'80020'
p1107
aS'80021'
p1108
aS'80023'
p1109
aS'80030'
p1110
aS'80031'
p1111
aS'80033'
p1112
aS'80045'
p1113
aS'80103'
p1114
aS'80110'
p1115
aS'80111'
p1116
aS'80112'
p1117
aS'80113'
p1118
aS'80120'
p1119
aS'80121'
p1120
aS'80122'
p1121
aS'80124'
p1122
aS'80126'
p1123
aS'80127'
p1124
aS'80129'
p1125
aS'80134'
p1126
aS'80136'
p1127
aS'80138'
p1128
aS'80202'
p1129
aS'80203'
p1130
aS'80204'
p1131
aS'80205'
p1132
aS'80206'
p1133
aS'80207'
p1134
aS'80209'
p1135
aS'80210'
p1136
aS'80211'
p1137
aS'80212'
p1138
aS'80214'
p1139
aS'80215'
p1140
aS'80216'
p1141
aS'80218'
p1142
aS'80219'
p1143
aS'80220'
p1144
aS'80221'
p1145
aS'80222'
p1146
aS'80223'
p1147
aS'80224'
p1148
aS'80226'
p1149
aS'80228'
p1150
aS'80229'
p1151
aS'80231'
p1152
aS'80234'
p1153
aS'80235'
p1154
aS'80236'
p1155
aS'80237'
p1156
aS'80239'
p1157
aS'80241'
p1158
aS'80246'
p1159
aS'80249'
p1160
aS'80260'
p1161
aS'80264'
p1162
aS'80265'
p1163
aS'80290'
p1164
aS'80293'
p1165
aS'80301'
p1166
aS'80302'
p1167
aS'80401'
p1168
aS'80403'
p1169
aS'80439'
p1170
aS'80465'
p1171
aS'80521'
p1172
aS'80601'
p1173
aS'80640'
p1174
ag177
atp1175
bsg28
g29
sbsS'Product Group_opp'
p1176
g2
(g3
g4
Ntp1177
Rp1178
(dp1179
g8
g9
(g10
(I0
tp1180
g12
tp1181
Rp1182
(I1
(I14
tp1183
g19
I00
(lp1184
S'Cloud'
p1185
aS'Dark Fiber - Long Haul'
p1186
aS'Dark Fiber - Metro'
p1187
aS'Ethernet'
p1188
aS'FTT - Dark Fiber'
p1189
aS'FTT - Ethernet'
p1190
aS'FTT - Small Cell'
p1191
aS'IP Services'
p1192
aS'Live Video'
p1193
aS'Managed WAN-LAN'
p1194
aS'SONET'
p1195
aS'Wavelengths - Long Haul'
p1196
aS'Wavelengths - Metro'
p1197
aS'zColo'
p1198
atp1199
bsg28
g29
sbsS'State'
p1200
g2
(g3
g4
Ntp1201
Rp1202
(dp1203
g8
g9
(g10
(I0
tp1204
g12
tp1205
Rp1206
(I1
(I4
tp1207
g19
I00
(lp1208
S'CO'
p1209
aS'GA'
p1210
aS'OR'
p1211
aS'TX'
p1212
atp1213
bsg28
g29
sbsS'On Zayo Network Status_cpqs'
p1214
g2
(g3
g4
Ntp1215
Rp1216
(dp1217
g8
g9
(g10
(I0
tp1218
g12
tp1219
Rp1220
(I1
(I4
tp1221
g19
I00
(lp1222
S'Build in Progress'
p1223
ag177
aS'Not on Zayo Network'
p1224
aS'On Zayo Network'
p1225
atp1226
bsg28
g29
sbsS'Opportunity Type'
p1227
g2
(g3
g4
Ntp1228
Rp1229
(dp1230
g8
g9
(g10
(I0
tp1231
g12
tp1232
Rp1233
(I1
(I11
tp1234
g19
I00
(lp1235
S'Disconnect'
p1236
aS'Forecast Opportunity'
p1237
aS'Lateral Relocation'
p1238
ag177
aS'Negative Re-Rate/Move/Change'
p1239
aS'New Service'
p1240
aS'Node Addition'
p1241
aS'Node Removal'
p1242
aS'Positive Re-Rate/Move/Change'
p1243
aS'Retention Opportunity'
p1244
aS'Revenue Commitment/Take or Pay'
p1245
atp1246
bsg28
g29
sbsS'Net Classification'
p1247
g2
(g3
g4
Ntp1248
Rp1249
(dp1250
g8
g9
(g10
(I0
tp1251
g12
tp1252
Rp1253
(I1
(I5
tp1254
g19
I00
(lp1255
S'Fiber Only'
p1256
aS'On-Net'
p1257
aS'Restricted'
p1258
aS'Stubbed'
p1259
aS'Type 2'
p1260
atp1261
bsg28
g29
sbsS'Market'
p1262
g2
(g3
g4
Ntp1263
Rp1264
(dp1265
g8
g9
(g10
(I0
tp1266
g12
tp1267
Rp1268
(I1
(I3
tp1269
g19
I00
(lp1270
S'Atlanta'
p1271
aS'Dallas'
p1272
aS'Denver'
p1273
atp1274
bsg28
g29
sbs.