(dp0
S'City'
p1
ccopy_reg
_reconstructor
p2
(csklearn.preprocessing.label
LabelEncoder
p3
c__builtin__
object
p4
Ntp5
Rp6
(dp7
S'classes_'
p8
cnumpy.core.multiarray
_reconstruct
p9
(cnumpy
ndarray
p10
(I0
tp11
S'b'
p12
tp13
Rp14
(I1
(I126
tp15
cnumpy
dtype
p16
(S'O8'
p17
I0
I1
tp18
Rp19
(I3
S'|'
p20
NNNI-1
I-1
I63
tp21
bI00
(lp22
S'Addison'
p23
aS'Aledo'
p24
aS'Allen'
p25
aS'Alpharetta'
p26
aS'Anna'
p27
aS'Argyle'
p28
aS'Arlington'
p29
aS'Arvada'
p30
aS'Atlanta'
p31
aS'Aurora'
p32
aS'Austell'
p33
aS'Azle'
p34
aS'Bedford'
p35
aS'Bennett'
p36
aS'Boulder'
p37
aS'Broomfield'
p38
aS'Buford'
p39
aS'Byers'
p40
aS'Carrollton'
p41
aS'Castle Rock'
p42
aS'Cedar Hill'
p43
aS'Centennial'
p44
aS'Chamblee'
p45
aS'Cleburne'
p46
aS'Colleyville'
p47
aS'Colorado Springs'
p48
aS'Commerce City'
p49
aS'Conyers'
p50
aS'Coppell'
p51
aS'Crandall'
p52
aS'Cumming'
p53
aS'Dallas'
p54
aS'DeSoto'
p55
aS'Decatur'
p56
aS'Deer Trail'
p57
aS'Denton'
p58
aS'Denver'
p59
aS'Desoto'
p60
aS'Douglasville'
p61
aS'Ducanville'
p62
aS'Duluth'
p63
aS'Duncanville'
p64
aS'Dunwoody'
p65
aS'Elbert'
p66
aS'Ellenwood'
p67
aS'Englewood'
p68
aS'Euless'
p69
aS'Evans'
p70
aS'Fairburn'
p71
aS"Farmer's Branch"
p72
aS'Farmers Branch'
p73
aS'Fayetteville'
p74
aS'Ferris'
p75
aS'Forest Park'
p76
aS'Forney'
p77
aS'Fort Worth'
p78
aS'Frisco'
p79
aS'Gainesville'
p80
aS'Garland'
p81
aS'Golden'
p82
aS'Grand Prairie'
p83
aS'Grapevine'
p84
aS'Greenwood Village'
p85
aS'Hampton'
p86
aS'Haslet'
p87
aS'Heath'
p88
aS'Henderson'
p89
aS'Hurst'
p90
aS'Irving'
p91
aS'Johns Creek'
p92
aS'Keene'
p93
aS'Kennesaw'
p94
aS'Kiowa'
p95
aS'Krum'
p96
aS'Lakewood'
p97
aS'Lawrenceville'
p98
aS'Lewisville'
p99
aS'Lilburn'
p100
aS'Lithia Springs'
p101
aS'Littleton'
p102
aS'Locust Grove'
p103
aS'Lone Tree'
p104
aS'Marietta'
p105
aS'McDonough'
p106
aS'McKinney'
p107
aS'Melissa'
p108
aS'Mesquite'
p109
aS'Midlothian'
p110
aS'Newnan'
p111
aS'Norcross'
p112
aS'North Richland Hills'
p113
aS'Palmetto'
p114
aS'Peachtree City'
p115
aS'Peachtree Corners'
p116
aS'Plano'
p117
aS'Portland'
p118
aS'Princeton'
p119
aS'Prosper'
p120
aS'Red Oak'
p121
aS'Richardson'
p122
aS'River Oaks'
p123
aS'Roanoke'
p124
aS'Rockwall'
p125
aS'Roswell'
p126
aS'Sanger'
p127
aS'Sedalia'
p128
aS'Smyrna'
p129
aS'Southlake'
p130
aS'Stockbridge'
p131
aS'Strasburg'
p132
aS'Sunnyvale'
p133
aS'Suwanee'
p134
aS'Texarkana'
p135
aS'The Colony'
p136
aS'Thornton'
p137
aS'Tucker'
p138
aS'Tyrone'
p139
aS'Union City'
p140
aS'Villa Rica'
p141
aS'Waxahachie'
p142
aS'Weatherford'
p143
aS'Westlake'
p144
aS'Westminster'
p145
aS'Wheat Ridge'
p146
aS'Willow Park'
p147
aS'Winston'
p148
atp149
bsS'_sklearn_version'
p150
S'0.18'
p151
sbsS'Vertical'
p152
g2
(g3
g4
Ntp153
Rp154
(dp155
g8
g9
(g10
(I0
tp156
g12
tp157
Rp158
(I1
(I2
tp159
g19
I00
(lp160
VNaN
p161
aS'National Carrier/ISP'
p162
atp163
bsg150
g151
sbsS'Industry'
p164
g2
(g3
g4
Ntp165
Rp166
(dp167
g8
g9
(g10
(I0
tp168
g12
tp169
Rp170
(I1
(I1
tp171
g19
I00
(lp172
g161
atp173
bsg150
g151
sbsS'Opportunity Type'
p174
g2
(g3
g4
Ntp175
Rp176
(dp177
g8
g9
(g10
(I0
tp178
g12
tp179
Rp180
(I1
(I11
tp181
g19
I00
(lp182
S'Disconnect'
p183
aS'Forecast Opportunity'
p184
aS'Lateral Relocation'
p185
ag161
aS'Negative Re-Rate/Move/Change'
p186
aS'New Service'
p187
aS'Node Addition'
p188
aS'Node Removal'
p189
aS'Positive Re-Rate/Move/Change'
p190
aS'Retention Opportunity'
p191
aS'Revenue Commitment/Take or Pay'
p192
atp193
bsg150
g151
sbsS'On Zayo Network Status'
p194
g2
(g3
g4
Ntp195
Rp196
(dp197
g8
g9
(g10
(I0
tp198
g12
tp199
Rp200
(I1
(I3
tp201
g19
I00
(lp202
S'Build in Progress'
p203
aS'Not on Zayo Network'
p204
aS'On Zayo Network'
p205
atp206
bsg150
g151
sbsS'State'
p207
g2
(g3
g4
Ntp208
Rp209
(dp210
g8
g9
(g10
(I0
tp211
g12
tp212
Rp213
(I1
(I4
tp214
g19
I00
(lp215
S'CO'
p216
aS'GA'
p217
aS'OR'
p218
aS'TX'
p219
atp220
bsg150
g151
sbsS'Net Classification'
p221
g2
(g3
g4
Ntp222
Rp223
(dp224
g8
g9
(g10
(I0
tp225
g12
tp226
Rp227
(I1
(I5
tp228
g19
I00
(lp229
S'Fiber Only'
p230
aS'On-Net'
p231
aS'Restricted'
p232
aS'Stubbed'
p233
aS'Type 2'
p234
atp235
bsg150
g151
sbsS'Postal Code'
p236
g2
(g3
g4
Ntp237
Rp238
(dp239
g8
g9
(g10
(I0
tp240
g12
tp241
Rp242
(I1
(I303
tp243
g19
I00
(lp244
S'30004'
p245
aS'30005'
p246
aS'30008'
p247
aS'30009'
p248
aS'30012'
p249
aS'30013'
p250
aS'30022'
p251
aS'30024'
p252
aS'30028'
p253
aS'30030'
p254
aS'30032'
p255
aS'30040'
p256
aS'30041'
p257
aS'30043'
p258
aS'30046'
p259
aS'30047'
p260
aS'30060'
p261
aS'30062'
p262
aS'30066'
p263
aS'30067'
p264
aS'30068'
p265
aS'30071'
p266
aS'30075'
p267
aS'30076'
p268
aS'30080'
p269
aS'30082'
p270
aS'30084'
p271
aS'30092'
p272
aS'30093'
p273
aS'30094'
p274
aS'30096'
p275
aS'30097'
p276
aS'30106'
p277
aS'30117'
p278
aS'30122'
p279
aS'30134'
p280
aS'30135'
p281
aS'30144'
p282
aS'30168'
p283
aS'30180'
p284
aS'30187'
p285
aS'30213'
p286
aS'30214'
p287
aS'30215'
p288
aS'30228'
p289
aS'30248'
p290
aS'30252'
p291
aS'30253'
p292
aS'30263'
p293
aS'30268'
p294
aS'30269'
p295
aS'30281'
p296
aS'30290'
p297
aS'30291'
p298
aS'30294'
p299
aS'30297'
p300
aS'30303'
p301
aS'30305'
p302
aS'30306'
p303
aS'30307'
p304
aS'30308'
p305
aS'30309'
p306
aS'30310'
p307
aS'30311'
p308
aS'30312'
p309
aS'30313'
p310
aS'30314'
p311
aS'30315'
p312
aS'30316'
p313
aS'30317'
p314
aS'30318'
p315
aS'30319'
p316
aS'30322'
p317
aS'30324'
p318
aS'30326'
p319
aS'30327'
p320
aS'30328'
p321
aS'30329'
p322
aS'30331'
p323
aS'30334'
p324
aS'30336'
p325
aS'30337'
p326
aS'30338'
p327
aS'30339'
p328
aS'30340'
p329
aS'30341'
p330
aS'30342'
p331
aS'30344'
p332
aS'30345'
p333
aS'30346'
p334
aS'30349'
p335
aS'30350'
p336
aS'30354'
p337
aS'30363'
p338
aS'30506'
p339
aS'30518'
p340
aS'30809'
p341
aS'75001'
p342
aS'75006'
p343
aS'75007'
p344
aS'75013'
p345
aS'75019'
p346
aS'75024'
p347
aS'75032'
p348
aS'75034'
p349
aS'75035'
p350
aS'75038'
p351
aS'75039'
p352
aS'75040'
p353
aS'75042'
p354
aS'75044'
p355
aS'75050'
p356
aS'75052'
p357
aS'75056'
p358
aS'75061'
p359
aS'75062'
p360
aS'75063'
p361
aS'75067'
p362
aS'75071'
p363
aS'75074'
p364
aS'75075'
p365
aS'75078'
p366
aS'75080'
p367
aS'75081'
p368
aS'75082'
p369
aS'75087'
p370
aS'75093'
p371
aS'75104'
p372
aS'75114'
p373
aS'75115'
p374
aS'75116'
p375
aS'75125'
p376
aS'75126'
p377
aS'75137'
p378
aS'75149'
p379
aS'75154'
p380
aS'75165'
p381
aS'75182'
p382
aS'75201'
p383
aS'75202'
p384
aS'75204'
p385
aS'75205'
p386
aS'75207'
p387
aS'75215'
p388
aS'75216'
p389
aS'75217'
p390
aS'75219'
p391
aS'75220'
p392
aS'75223'
p393
aS'75225'
p394
aS'75226'
p395
aS'75227'
p396
aS'75230'
p397
aS'75231'
p398
aS'75234'
p399
aS'75235'
p400
aS'75236'
p401
aS'75237'
p402
aS'75238'
p403
aS'75240'
p404
aS'75243'
p405
aS'75244'
p406
aS'75247'
p407
aS'75248'
p408
aS'75249'
p409
aS'75251'
p410
aS'75252'
p411
aS'75254'
p412
aS'75407'
p413
aS'75409'
p414
aS'75454'
p415
aS'75501'
p416
aS'76006'
p417
aS'76008'
p418
aS'76010'
p419
aS'76011'
p420
aS'76012'
p421
aS'76013'
p422
aS'76018'
p423
aS'76020'
p424
aS'76021'
p425
aS'76033'
p426
aS'76034'
p427
aS'76039'
p428
aS'76040'
p429
aS'76051'
p430
aS'76052'
p431
aS'76054'
p432
aS'76059'
p433
aS'76065'
p434
aS'76086'
p435
aS'76087'
p436
aS'76092'
p437
aS'76102'
p438
aS'76103'
p439
aS'76104'
p440
aS'76105'
p441
aS'76106'
p442
aS'76107'
p443
aS'76108'
p444
aS'76109'
p445
aS'76110'
p446
aS'76111'
p447
aS'76112'
p448
aS'76114'
p449
aS'76115'
p450
aS'76116'
p451
aS'76119'
p452
aS'76120'
p453
aS'76132'
p454
aS'76133'
p455
aS'76134'
p456
aS'76137'
p457
aS'76155'
p458
aS'76164'
p459
aS'76177'
p460
aS'76179'
p461
aS'76182'
p462
aS'76207'
p463
aS'76226'
p464
aS'76234'
p465
aS'76249'
p466
aS'76262'
p467
aS'76266'
p468
aS'80004'
p469
aS'80007'
p470
aS'80011'
p471
aS'80014'
p472
aS'80015'
p473
aS'80016'
p474
aS'80018'
p475
aS'80020'
p476
aS'80021'
p477
aS'80022'
p478
aS'80023'
p479
aS'80030'
p480
aS'80031'
p481
aS'80033'
p482
aS'80045'
p483
aS'80102'
p484
aS'80103'
p485
aS'80104'
p486
aS'80105'
p487
aS'80106'
p488
aS'80110'
p489
aS'80111'
p490
aS'80112'
p491
aS'80113'
p492
aS'80117'
p493
aS'80120'
p494
aS'80121'
p495
aS'80122'
p496
aS'80123'
p497
aS'80124'
p498
aS'80125'
p499
aS'80126'
p500
aS'80129'
p501
aS'80135'
p502
aS'80136'
p503
aS'80202'
p504
aS'80203'
p505
aS'80204'
p506
aS'80205'
p507
aS'80206'
p508
aS'80207'
p509
aS'80209'
p510
aS'80210'
p511
aS'80211'
p512
aS'80212'
p513
aS'80214'
p514
aS'80215'
p515
aS'80216'
p516
aS'80218'
p517
aS'80219'
p518
aS'80220'
p519
aS'80221'
p520
aS'80222'
p521
aS'80223'
p522
aS'80224'
p523
aS'80225'
p524
aS'80226'
p525
aS'80227'
p526
aS'80228'
p527
aS'80229'
p528
aS'80230'
p529
aS'80231'
p530
aS'80234'
p531
aS'80235'
p532
aS'80236'
p533
aS'80237'
p534
aS'80239'
p535
aS'80241'
p536
aS'80246'
p537
aS'80247'
p538
aS'80249'
p539
aS'80260'
p540
aS'80265'
p541
aS'80302'
p542
aS'80401'
p543
aS'80403'
p544
aS'80640'
p545
aS'80917'
p546
aS'97209'
p547
atp548
bsg150
g151
sbsS'Type'
p549
g2
(g3
g4
Ntp550
Rp551
(dp552
g8
g9
(g10
(I0
tp553
g12
tp554
Rp555
(I1
(I33
tp556
g19
I00
(lp557
S'Airport'
p558
aS'Carrier Hotel'
p559
aS'Carrier POP'
p560
aS'Cell Site'
p561
aS'Clinic'
p562
aS'College/University'
p563
aS'Conference/Convention Center'
p564
aS'Earth Station/Satellite Farm/Uplink Facility'
p565
aS'Elementary School'
p566
aS'Enterprise'
p567
aS'Federal Government'
p568
aS'High School'
p569
aS'Hospital'
p570
aS'Hotel & Inn'
p571
aS'ILA'
p572
aS'ILEC Central Office'
p573
aS'Local/State Government'
p574
aS'Middle School'
p575
aS'Mobile Service Center'
p576
aS'Neutral Data Center'
p577
aS'Office - Multi Tenant'
p578
aS'Office - Single Tenant'
p579
aS'Pole'
p580
aS'Private Data Center'
p581
aS'Residential - Multi Tenant'
p582
aS'Retail - Multi Tenant'
p583
aS'Retail - Single Tenant'
p584
aS'Retail: Lrg Shopping Mall'
p585
aS'Small Cell'
p586
aS'Splice Point'
p587
aS'Stadium/Arena'
p588
aS'Studio/Broadcast Center'
p589
aS'Zayo POP'
p590
atp591
bsg150
g151
sbsS'Market'
p592
g2
(g3
g4
Ntp593
Rp594
(dp595
g8
g9
(g10
(I0
tp596
g12
tp597
Rp598
(I1
(I3
tp599
g19
I00
(lp600
S'Atlanta'
p601
aS'Dallas'
p602
aS'Denver'
p603
atp604
bsg150
g151
sbsS'Product Group_opp'
p605
g2
(g3
g4
Ntp606
Rp607
(dp608
g8
g9
(g10
(I0
tp609
g12
tp610
Rp611
(I1
(I14
tp612
g19
I00
(lp613
S'Cloud'
p614
aS'Dark Fiber - Long Haul'
p615
aS'Dark Fiber - Metro'
p616
aS'Ethernet'
p617
aS'FTT - Dark Fiber'
p618
aS'FTT - Ethernet'
p619
aS'FTT - Small Cell'
p620
aS'IP Services'
p621
aS'Live Video'
p622
aS'Managed WAN-LAN'
p623
aS'SONET'
p624
aS'Wavelengths - Long Haul'
p625
aS'Wavelengths - Metro'
p626
aS'zColo'
p627
atp628
bsg150
g151
sbs.